target datalayout = "e-m:e-p270:32:32-p271:32:32-p272:64:64-i64:64-i128:128-f80:128-n8:16:32:64-S128"
target triple = "x86_64-pc-linux-gnu"

%struct.PageHeaderData = type { %struct.PageXLogRecPtr, i16, i16, i16, i16, i16, i16, i32, [0 x %struct.ItemIdData] }
%struct.PageXLogRecPtr = type { i32, i32 }
%struct.ItemIdData = type { i32 }
%struct.IndexTupleData = type { %struct.ItemPointerData, i16 }
%struct.ItemPointerData = type { %struct.BlockIdData, i16 }
%struct.BlockIdData = type { i16, i16 }
%struct.BuildAccumulator = type { ptr, i64, ptr, i32, ptr, %struct.RBTreeIterator }
%struct.RBTreeIterator = type { ptr, ptr, ptr, i8 }
%struct.KeyArray = type { ptr, ptr, i32, i32 }

; Function Attrs: inlinehint nounwind uwtable
define internal void @BlockIdSet(ptr noundef %0, i32 noundef %1) #4 {
  %3 = alloca ptr, align 8
  %4 = alloca i32, align 4
  store ptr %0, ptr %3, align 8
  store i32 %1, ptr %4, align 4
  %5 = load i32, ptr %4, align 4
  %6 = lshr i32 %5, 16
  %7 = trunc i32 %6 to i16
  %8 = load ptr, ptr %3, align 8
  %9 = getelementptr inbounds nuw %struct.BlockIdData, ptr %8, i32 0, i32 0
  store i16 %7, ptr %9, align 2
  %10 = load i32, ptr %4, align 4
  %11 = and i32 %10, 65535
  %12 = trunc i32 %11 to i16
  %13 = load ptr, ptr %3, align 8
  %14 = getelementptr inbounds nuw %struct.BlockIdData, ptr %13, i32 0, i32 1
  store i16 %12, ptr %14, align 2
  ret void
}

; Function Attrs: nounwind uwtable
define internal void @addDatum(ptr noundef %0, i64 noundef %1, i8 noundef signext %2) #0 {
  %4 = alloca ptr, align 8
  %5 = alloca i64, align 8
  %6 = alloca i8, align 1
  store ptr %0, ptr %4, align 8
  store i64 %1, ptr %5, align 8
  store i8 %2, ptr %6, align 1
  %7 = load ptr, ptr %4, align 8
  %8 = getelementptr inbounds nuw %struct.KeyArray, ptr %7, i32 0, i32 2
  %9 = load i32, ptr %8, align 8
  %10 = load ptr, ptr %4, align 8
  %11 = getelementptr inbounds nuw %struct.KeyArray, ptr %10, i32 0, i32 3
  %12 = load i32, ptr %11, align 4
  %13 = icmp sge i32 %9, %12
  br i1 %13, label %14, label %41

14:                                               ; preds = %3
  %15 = load ptr, ptr %4, align 8
  %16 = getelementptr inbounds nuw %struct.KeyArray, ptr %15, i32 0, i32 3
  %17 = load i32, ptr %16, align 4
  %18 = mul i32 %17, 2
  store i32 %18, ptr %16, align 4
  %19 = load ptr, ptr %4, align 8
  %20 = getelementptr inbounds nuw %struct.KeyArray, ptr %19, i32 0, i32 0
  %21 = load ptr, ptr %20, align 8
  %22 = load ptr, ptr %4, align 8
  %23 = getelementptr inbounds nuw %struct.KeyArray, ptr %22, i32 0, i32 3
  %24 = load i32, ptr %23, align 4
  %25 = sext i32 %24 to i64
  %26 = mul i64 8, %25
  %27 = call ptr @repalloc(ptr noundef %21, i64 noundef %26)
  %28 = load ptr, ptr %4, align 8
  %29 = getelementptr inbounds nuw %struct.KeyArray, ptr %28, i32 0, i32 0
  store ptr %27, ptr %29, align 8
  %30 = load ptr, ptr %4, align 8
  %31 = getelementptr inbounds nuw %struct.KeyArray, ptr %30, i32 0, i32 1
  %32 = load ptr, ptr %31, align 8
  %33 = load ptr, ptr %4, align 8
  %34 = getelementptr inbounds nuw %struct.KeyArray, ptr %33, i32 0, i32 3
  %35 = load i32, ptr %34, align 4
  %36 = sext i32 %35 to i64
  %37 = mul i64 1, %36
  %38 = call ptr @repalloc(ptr noundef %32, i64 noundef %37)
  %39 = load ptr, ptr %4, align 8
  %40 = getelementptr inbounds nuw %struct.KeyArray, ptr %39, i32 0, i32 1
  store ptr %38, ptr %40, align 8
  br label %41

41:                                               ; preds = %14, %3
  %42 = load i64, ptr %5, align 8
  %43 = load ptr, ptr %4, align 8
  %44 = getelementptr inbounds nuw %struct.KeyArray, ptr %43, i32 0, i32 0
  %45 = load ptr, ptr %44, align 8
  %46 = load ptr, ptr %4, align 8
  %47 = getelementptr inbounds nuw %struct.KeyArray, ptr %46, i32 0, i32 2
  %48 = load i32, ptr %47, align 8
  %49 = sext i32 %48 to i64
  %50 = getelementptr inbounds i64, ptr %45, i64 %49
  store i64 %42, ptr %50, align 8
  %51 = load i8, ptr %6, align 1
  %52 = load ptr, ptr %4, align 8
  %53 = getelementptr inbounds nuw %struct.KeyArray, ptr %52, i32 0, i32 1
  %54 = load ptr, ptr %53, align 8
  %55 = load ptr, ptr %4, align 8
  %56 = getelementptr inbounds nuw %struct.KeyArray, ptr %55, i32 0, i32 2
  %57 = load i32, ptr %56, align 8
  %58 = sext i32 %57 to i64
  %59 = getelementptr inbounds i8, ptr %54, i64 %58
  store i8 %51, ptr %59, align 1
  %60 = load ptr, ptr %4, align 8
  %61 = getelementptr inbounds nuw %struct.KeyArray, ptr %60, i32 0, i32 2
  %62 = load i32, ptr %61, align 8
  %63 = add i32 %62, 1
  store i32 %63, ptr %61, align 8
  ret void
}

; Function Attrs: inlinehint nounwind uwtable
define internal zeroext i1 @ItemPointerIsValid(ptr noundef %0) #4 {
  %2 = alloca ptr, align 8
  store ptr %0, ptr %2, align 8
  %3 = load ptr, ptr %2, align 8
  %4 = icmp ne ptr %3, null
  br i1 %4, label %5, label %11

5:                                                ; preds = %1
  %6 = load ptr, ptr %2, align 8
  %7 = getelementptr inbounds nuw %struct.ItemPointerData, ptr %6, i32 0, i32 1
  %8 = load i16, ptr %7, align 2
  %9 = zext i16 %8 to i32
  %10 = icmp ne i32 %9, 0
  br label %11

11:                                               ; preds = %5, %1
  %12 = phi i1 [ false, %1 ], [ %10, %5 ]
  ret i1 %12
}

; Function Attrs: inlinehint nounwind uwtable
define internal ptr @PageGetItem(ptr noundef %0, ptr noundef %1) #4 {
  %3 = alloca ptr, align 8
  %4 = alloca ptr, align 8
  store ptr %0, ptr %3, align 8
  store ptr %1, ptr %4, align 8
  %5 = load ptr, ptr %3, align 8
  %6 = load ptr, ptr %4, align 8
  %7 = load i32, ptr %6, align 4
  %8 = and i32 %7, 32767
  %9 = sext i32 %8 to i64
  %10 = getelementptr inbounds i8, ptr %5, i64 %9
  ret ptr %10
}

; Function Attrs: inlinehint nounwind uwtable
define internal ptr @PageGetItemId(ptr noundef %0, i16 noundef zeroext %1) #4 {
  %3 = alloca ptr, align 8
  %4 = alloca i16, align 2
  store ptr %0, ptr %3, align 8
  store i16 %1, ptr %4, align 2
  %5 = load ptr, ptr %3, align 8
  %6 = getelementptr inbounds nuw %struct.PageHeaderData, ptr %5, i32 0, i32 8
  %7 = load i16, ptr %4, align 2
  %8 = zext i16 %7 to i32
  %9 = sub i32 %8, 1
  %10 = sext i32 %9 to i64
  %11 = getelementptr inbounds [0 x %struct.ItemIdData], ptr %6, i64 0, i64 %10
  ret ptr %11
}

; Function Attrs: inlinehint nounwind uwtable
define internal void @ItemPointerSetInvalid(ptr noundef %0) #4 {
  %2 = alloca ptr, align 8
  store ptr %0, ptr %2, align 8
  %3 = load ptr, ptr %2, align 8
  %4 = getelementptr inbounds nuw %struct.ItemPointerData, ptr %3, i32 0, i32 0
  call void @BlockIdSet(ptr noundef %4, i32 noundef -1)
  %5 = load ptr, ptr %2, align 8
  %6 = getelementptr inbounds nuw %struct.ItemPointerData, ptr %5, i32 0, i32 1
  store i16 0, ptr %6, align 2
  ret void
}

; Function Attrs: inlinehint nounwind uwtable
define internal zeroext i16 @PageGetMaxOffsetNumber(ptr noundef %0) #4 {
  %2 = alloca i16, align 2
  %3 = alloca ptr, align 8
  %4 = alloca ptr, align 8
  %5 = alloca i32, align 4
  store ptr %0, ptr %3, align 8
  call void @llvm.lifetime.start.p0(i64 8, ptr %4) #8
  %6 = load ptr, ptr %3, align 8
  store ptr %6, ptr %4, align 8
  %7 = load ptr, ptr %4, align 8
  %8 = getelementptr inbounds nuw %struct.PageHeaderData, ptr %7, i32 0, i32 3
  %9 = load i16, ptr %8, align 4
  %10 = zext i16 %9 to i64
  %11 = icmp ule i64 %10, 24
  br i1 %11, label %12, label %13

12:                                               ; preds = %1
  store i16 0, ptr %2, align 2
  store i32 1, ptr %5, align 4
  br label %21

13:                                               ; preds = %1
  %14 = load ptr, ptr %4, align 8
  %15 = getelementptr inbounds nuw %struct.PageHeaderData, ptr %14, i32 0, i32 3
  %16 = load i16, ptr %15, align 4
  %17 = zext i16 %16 to i64
  %18 = sub i64 %17, 24
  %19 = udiv i64 %18, 4
  %20 = trunc i64 %19 to i16
  store i16 %20, ptr %2, align 2
  store i32 1, ptr %5, align 4
  br label %21

21:                                               ; preds = %13, %12
  call void @llvm.lifetime.end.p0(i64 8, ptr %4) #8
  %22 = load i16, ptr %2, align 2
  ret i16 %22
}

; Function Attrs: nounwind uwtable
define internal void @processPendingPage(ptr noundef %0, ptr noundef %1, ptr noundef %2, i16 noundef zeroext %3) #0 {
  %5 = alloca ptr, align 8
  %6 = alloca ptr, align 8
  %7 = alloca ptr, align 8
  %8 = alloca i16, align 2
  %9 = alloca %struct.ItemPointerData, align 2
  %10 = alloca i16, align 2
  %11 = alloca i16, align 2
  %12 = alloca i16, align 2
  %13 = alloca ptr, align 8
  %14 = alloca i16, align 2
  %15 = alloca i64, align 8
  %16 = alloca i8, align 1
  store ptr %0, ptr %5, align 8
  store ptr %1, ptr %6, align 8
  store ptr %2, ptr %7, align 8
  store i16 %3, ptr %8, align 2
  call void @llvm.lifetime.start.p0(i64 6, ptr %9) #8
  call void @llvm.lifetime.start.p0(i64 2, ptr %10) #8
  call void @llvm.lifetime.start.p0(i64 2, ptr %11) #8
  call void @llvm.lifetime.start.p0(i64 2, ptr %12) #8
  %17 = load ptr, ptr %6, align 8
  %18 = getelementptr inbounds nuw %struct.KeyArray, ptr %17, i32 0, i32 2
  store i32 0, ptr %18, align 8
  %19 = load ptr, ptr %7, align 8
  %20 = call zeroext i16 @PageGetMaxOffsetNumber(ptr noundef %19)
  store i16 %20, ptr %11, align 2
  call void @ItemPointerSetInvalid(ptr noundef %9)
  store i16 0, ptr %12, align 2
  %21 = load i16, ptr %8, align 2
  store i16 %21, ptr %10, align 2
  br label %22

22:                                               ; preds = %81, %4
  %23 = load i16, ptr %10, align 2
  %24 = zext i16 %23 to i32
  %25 = load i16, ptr %11, align 2
  %26 = zext i16 %25 to i32
  %27 = icmp sle i32 %24, %26
  br i1 %27, label %28, label %86

28:                                               ; preds = %22
  call void @llvm.lifetime.start.p0(i64 8, ptr %13) #8
  %29 = load ptr, ptr %7, align 8
  %30 = load ptr, ptr %7, align 8
  %31 = load i16, ptr %10, align 2
  %32 = call ptr @PageGetItemId(ptr noundef %30, i16 noundef zeroext %31)
  %33 = call ptr @PageGetItem(ptr noundef %29, ptr noundef %32)
  store ptr %33, ptr %13, align 8
  call void @llvm.lifetime.start.p0(i64 2, ptr %14) #8
  call void @llvm.lifetime.start.p0(i64 8, ptr %15) #8
  call void @llvm.lifetime.start.p0(i64 1, ptr %16) #8
  %34 = load ptr, ptr %5, align 8
  %35 = getelementptr inbounds nuw %struct.BuildAccumulator, ptr %34, i32 0, i32 0
  %36 = load ptr, ptr %35, align 8
  %37 = load ptr, ptr %13, align 8
  %38 = call zeroext i16 @gintuple_get_attrnum(ptr noundef %36, ptr noundef %37)
  store i16 %38, ptr %14, align 2
  %39 = call zeroext i1 @ItemPointerIsValid(ptr noundef %9)
  br i1 %39, label %44, label %40

40:                                               ; preds = %28
  %41 = load ptr, ptr %13, align 8
  %42 = getelementptr inbounds nuw %struct.IndexTupleData, ptr %41, i32 0, i32 0
  call void @llvm.memcpy.p0.p0.i64(ptr align 2 %9, ptr align 2 %42, i64 6, i1 false)
  %43 = load i16, ptr %14, align 2
  store i16 %43, ptr %12, align 2
  br label %72

44:                                               ; preds = %28
  %45 = load ptr, ptr %13, align 8
  %46 = getelementptr inbounds nuw %struct.IndexTupleData, ptr %45, i32 0, i32 0
  %47 = call zeroext i1 @ItemPointerEquals(ptr noundef %9, ptr noundef %46)
  br i1 %47, label %48, label %54

48:                                               ; preds = %44
  %49 = load i16, ptr %14, align 2
  %50 = zext i16 %49 to i32
  %51 = load i16, ptr %12, align 2
  %52 = zext i16 %51 to i32
  %53 = icmp eq i32 %50, %52
  br i1 %53, label %71, label %54

54:                                               ; preds = %48, %44
  %55 = load ptr, ptr %5, align 8
  %56 = load i16, ptr %12, align 2
  %57 = load ptr, ptr %6, align 8
  %58 = getelementptr inbounds nuw %struct.KeyArray, ptr %57, i32 0, i32 0
  %59 = load ptr, ptr %58, align 8
  %60 = load ptr, ptr %6, align 8
  %61 = getelementptr inbounds nuw %struct.KeyArray, ptr %60, i32 0, i32 1
  %62 = load ptr, ptr %61, align 8
  %63 = load ptr, ptr %6, align 8
  %64 = getelementptr inbounds nuw %struct.KeyArray, ptr %63, i32 0, i32 2
  %65 = load i32, ptr %64, align 8
  call void @ginInsertBAEntries(ptr noundef %55, ptr noundef %9, i16 noundef zeroext %56, ptr noundef %59, ptr noundef %62, i32 noundef %65)
  %66 = load ptr, ptr %6, align 8
  %67 = getelementptr inbounds nuw %struct.KeyArray, ptr %66, i32 0, i32 2
  store i32 0, ptr %67, align 8
  %68 = load ptr, ptr %13, align 8
  %69 = getelementptr inbounds nuw %struct.IndexTupleData, ptr %68, i32 0, i32 0
  call void @llvm.memcpy.p0.p0.i64(ptr align 2 %9, ptr align 2 %69, i64 6, i1 false)
  %70 = load i16, ptr %14, align 2
  store i16 %70, ptr %12, align 2
  br label %71

71:                                               ; preds = %54, %48
  br label %72

72:                                               ; preds = %71, %40
  %73 = load ptr, ptr %5, align 8
  %74 = getelementptr inbounds nuw %struct.BuildAccumulator, ptr %73, i32 0, i32 0
  %75 = load ptr, ptr %74, align 8
  %76 = load ptr, ptr %13, align 8
  %77 = call i64 @gintuple_get_key(ptr noundef %75, ptr noundef %76, ptr noundef %16)
  store i64 %77, ptr %15, align 8
  %78 = load ptr, ptr %6, align 8
  %79 = load i64, ptr %15, align 8
  %80 = load i8, ptr %16, align 1
  call void @addDatum(ptr noundef %78, i64 noundef %79, i8 noundef signext %80)
  call void @llvm.lifetime.end.p0(i64 1, ptr %16) #8
  call void @llvm.lifetime.end.p0(i64 8, ptr %15) #8
  call void @llvm.lifetime.end.p0(i64 2, ptr %14) #8
  call void @llvm.lifetime.end.p0(i64 8, ptr %13) #8
  br label %81

81:                                               ; preds = %72
  %82 = load i16, ptr %10, align 2
  %83 = zext i16 %82 to i32
  %84 = add i32 1, %83
  %85 = trunc i32 %84 to i16
  store i16 %85, ptr %10, align 2
  br label %22, !llvm.loop !12

86:                                               ; preds = %22
  %87 = load ptr, ptr %5, align 8
  %88 = load i16, ptr %12, align 2
  %89 = load ptr, ptr %6, align 8
  %90 = getelementptr inbounds nuw %struct.KeyArray, ptr %89, i32 0, i32 0
  %91 = load ptr, ptr %90, align 8
  %92 = load ptr, ptr %6, align 8
  %93 = getelementptr inbounds nuw %struct.KeyArray, ptr %92, i32 0, i32 1
  %94 = load ptr, ptr %93, align 8
  %95 = load ptr, ptr %6, align 8
  %96 = getelementptr inbounds nuw %struct.KeyArray, ptr %95, i32 0, i32 2
  %97 = load i32, ptr %96, align 8
  call void @ginInsertBAEntries(ptr noundef %87, ptr noundef %9, i16 noundef zeroext %88, ptr noundef %91, ptr noundef %94, i32 noundef %97)
  call void @llvm.lifetime.end.p0(i64 2, ptr %12) #8
  call void @llvm.lifetime.end.p0(i64 2, ptr %11) #8
  call void @llvm.lifetime.end.p0(i64 2, ptr %10) #8
  call void @llvm.lifetime.end.p0(i64 6, ptr %9) #8
  ret void
}