; Function Attrs: nounwind uwtable
define internal fastcc void @processPendingPage(ptr noundef nonnull %0, ptr noundef nonnull captures(none) initializes((16, 20)) %1, ptr noundef %2, i16 noundef zeroext range(i16 1, 16379) %3) unnamed_addr #0 {
  %5 = alloca %struct.ItemPointerData, align 2
  %6 = alloca i8, align 1
  call void @llvm.lifetime.start.p0(i64 6, ptr nonnull %5) #9
  %7 = getelementptr inbounds nuw i8, ptr %1, i64 16
  store i32 0, ptr %7, align 8
  %8 = getelementptr i8, ptr %2, i64 12
  %.val = load i16, ptr %8, align 4
  %9 = icmp ult i16 %.val, 25
  %10 = zext i16 %.val to i32
  %11 = add nuw nsw i32 %10, 262120
  %12 = lshr i32 %11, 2
  %13 = trunc i32 %12 to i16
  %.0.i = select i1 %9, i16 0, i16 %13
  store i16 -1, ptr %5, align 2
  %14 = getelementptr inbounds nuw i8, ptr %5, i64 2
  store i16 -1, ptr %14, align 2
  %15 = getelementptr inbounds nuw i8, ptr %5, i64 4
  store i16 0, ptr %15, align 2
  %.not37 = icmp ugt i16 %3, %.0.i
  br i1 %.not37, label %._crit_edge, label %.lr.ph

.lr.ph:                                           ; preds = %4
  %16 = getelementptr inbounds nuw i8, ptr %2, i64 24
  %17 = getelementptr inbounds nuw i8, ptr %1, i64 8
  %18 = getelementptr inbounds nuw i8, ptr %1, i64 20
  br label %19

19:                                               ; preds = %.lr.ph, %addDatum.exit
  %.039 = phi i16 [ %3, %.lr.ph ], [ %61, %addDatum.exit ]
  %.03238 = phi i16 [ 0, %.lr.ph ], [ %.1, %addDatum.exit ]
  %20 = zext i16 %.039 to i64
  %21 = add nsw i64 %20, -1
  %22 = getelementptr inbounds [0 x %struct.ItemIdData], ptr %16, i64 0, i64 %21
  %.val34 = load i32, ptr %22, align 4
  %23 = and i32 %.val34, 32767
  %24 = zext nneg i32 %23 to i64
  %25 = getelementptr inbounds nuw i8, ptr %2, i64 %24
  call void @llvm.lifetime.start.p0(i64 1, ptr nonnull %6) #9
  %26 = load ptr, ptr %0, align 8
  %27 = call zeroext i16 @gintuple_get_attrnum(ptr noundef %26, ptr noundef %25) #9
  %.val35 = load i16, ptr %15, align 2
  %.not36 = icmp eq i16 %.val35, 0
  br i1 %.not36, label %.sink.split, label %28

28:                                               ; preds = %19
  %29 = call zeroext i1 @ItemPointerEquals(ptr noundef nonnull %5, ptr noundef nonnull %25) #9
  %30 = icmp eq i16 %27, %.03238
  %or.cond = select i1 %29, i1 %30, i1 false
  br i1 %or.cond, label %35, label %31

31:                                               ; preds = %28
  %32 = load ptr, ptr %1, align 8
  %33 = load ptr, ptr %17, align 8
  %34 = load i32, ptr %7, align 8
  call void @ginInsertBAEntries(ptr noundef nonnull %0, ptr noundef nonnull %5, i16 noundef zeroext %.03238, ptr noundef %32, ptr noundef %33, i32 noundef %34) #9
  store i32 0, ptr %7, align 8
  br label %.sink.split

.sink.split:                                      ; preds = %19, %31
  call void @llvm.memcpy.p0.p0.i64(ptr noundef nonnull align 2 dereferenceable(6) %5, ptr noundef nonnull align 2 dereferenceable(6) %25, i64 6, i1 false)
  br label %35

35:                                               ; preds = %.sink.split, %28
  %.1 = phi i16 [ %.03238, %28 ], [ %27, %.sink.split ]
  %36 = load ptr, ptr %0, align 8
  %37 = call i64 @gintuple_get_key(ptr noundef %36, ptr noundef nonnull %25, ptr noundef nonnull %6) #9
  %38 = load i8, ptr %6, align 1
  %39 = load i32, ptr %7, align 8
  %40 = load i32, ptr %18, align 4
  %.not.i = icmp slt i32 %39, %40
  br i1 %.not.i, label %addDatum.exit, label %41

41:                                               ; preds = %35
  %42 = shl i32 %40, 1
  store i32 %42, ptr %18, align 4
  %43 = load ptr, ptr %1, align 8
  %44 = sext i32 %42 to i64
  %45 = shl nsw i64 %44, 3
  %46 = call ptr @repalloc(ptr noundef %43, i64 noundef %45) #9
  store ptr %46, ptr %1, align 8
  %47 = load ptr, ptr %17, align 8
  %48 = load i32, ptr %18, align 4
  %49 = sext i32 %48 to i64
  %50 = call ptr @repalloc(ptr noundef %47, i64 noundef %49) #9
  store ptr %50, ptr %17, align 8
  %.pre.i = load i32, ptr %7, align 8
  br label %addDatum.exit

addDatum.exit:                                    ; preds = %35, %41
  %51 = phi i32 [ %.pre.i, %41 ], [ %39, %35 ]
  %52 = load ptr, ptr %1, align 8
  %53 = sext i32 %51 to i64
  %54 = getelementptr inbounds i64, ptr %52, i64 %53
  store i64 %37, ptr %54, align 8
  %55 = load ptr, ptr %17, align 8
  %56 = load i32, ptr %7, align 8
  %57 = sext i32 %56 to i64
  %58 = getelementptr inbounds i8, ptr %55, i64 %57
  store i8 %38, ptr %58, align 1
  %59 = load i32, ptr %7, align 8
  %60 = add i32 %59, 1
  store i32 %60, ptr %7, align 8
  call void @llvm.lifetime.end.p0(i64 1, ptr nonnull %6) #9
  %61 = add i16 %.039, 1
  %.not = icmp ugt i16 %61, %.0.i
  br i1 %.not, label %._crit_edge, label %19, !llvm.loop !17

._crit_edge:                                      ; preds = %addDatum.exit, %4
  %62 = phi i32 [ 0, %4 ], [ %60, %addDatum.exit ]
  %.032.lcssa = phi i16 [ 0, %4 ], [ %.1, %addDatum.exit ]
  %63 = load ptr, ptr %1, align 8
  %64 = getelementptr inbounds nuw i8, ptr %1, i64 8
  %65 = load ptr, ptr %64, align 8
  call void @ginInsertBAEntries(ptr noundef nonnull %0, ptr noundef nonnull %5, i16 noundef zeroext %.032.lcssa, ptr noundef %63, ptr noundef %65, i32 noundef %62) #9
  call void @llvm.lifetime.end.p0(i64 6, ptr nonnull %5) #9
  ret void
}